; Function Attrs: mustprogress nounwind uwtable
define hidden void @_ZN4Node9set_req_XEjPS_P8PhaseGVN(ptr noundef nonnull align 8 dereferenceable(52) %0, i32 noundef %1, ptr noundef %2, ptr noundef %3) local_unnamed_addr #0 align 2 {
  %5 = getelementptr inbounds i8, ptr %3, i64 24
  %6 = load i8, ptr %5, align 8
  %7 = trunc i8 %6 to i1
  %8 = icmp ne ptr %3, null
  %.not7 = and i1 %8, %7
  br i1 %.not7, label %49, label %9

9:                                                ; preds = %4
  %10 = getelementptr inbounds i8, ptr %0, i64 8
  %11 = load ptr, ptr %10, align 8
  %12 = zext i32 %1 to i64
  %13 = getelementptr inbounds ptr, ptr %11, i64 %12
  %14 = load ptr, ptr %13, align 8
  %.not.i = icmp eq ptr %14, null
  br i1 %.not.i, label %_ZN4Node7del_outEPS_.exit.i, label %15

15:                                               ; preds = %9
  %16 = getelementptr inbounds i8, ptr %14, i64 16
  %17 = load ptr, ptr %16, align 8
  %18 = icmp eq ptr %17, null
  br i1 %18, label %_ZN4Node7del_outEPS_.exit.i, label %19

19:                                               ; preds = %15
  %20 = getelementptr inbounds i8, ptr %14, i64 32
  %21 = load i32, ptr %20, align 8
  %22 = zext i32 %21 to i64
  %23 = getelementptr inbounds ptr, ptr %17, i64 %22
  br label %24

24:                                               ; preds = %24, %19
  %.0.i.i = phi ptr [ %23, %19 ], [ %25, %24 ]
  %25 = getelementptr inbounds i8, ptr %.0.i.i, i64 -8
  %26 = load ptr, ptr %25, align 8
  %.not.i.i = icmp eq ptr %26, %0
  br i1 %.not.i.i, label %27, label %24, !llvm.loop !28

27:                                               ; preds = %24
  %28 = add i32 %21, -1
  store i32 %28, ptr %20, align 8
  %29 = zext i32 %28 to i64
  %30 = getelementptr inbounds ptr, ptr %17, i64 %29
  %31 = load ptr, ptr %30, align 8
  store ptr %31, ptr %25, align 8
  br label %_ZN4Node7del_outEPS_.exit.i

_ZN4Node7del_outEPS_.exit.i:                      ; preds = %27, %15, %9
  store ptr %2, ptr %13, align 8
  %.not8.i = icmp eq ptr %2, null
  br i1 %.not8.i, label %_ZN4Node7set_reqEjPS_.exit, label %32

32:                                               ; preds = %_ZN4Node7del_outEPS_.exit.i
  %33 = getelementptr inbounds i8, ptr %2, i64 16
  %34 = load ptr, ptr %33, align 8
  %35 = icmp eq ptr %34, null
  br i1 %35, label %_ZN4Node7set_reqEjPS_.exit, label %36

36:                                               ; preds = %32
  %37 = getelementptr inbounds i8, ptr %2, i64 32
  %38 = load i32, ptr %37, align 8
  %39 = getelementptr inbounds i8, ptr %2, i64 36
  %40 = load i32, ptr %39, align 4
  %41 = icmp eq i32 %38, %40
  br i1 %41, label %42, label %43

42:                                               ; preds = %36
  tail call void @_ZN4Node8out_growEj(ptr noundef nonnull align 8 dereferenceable(52) %2, i32 noundef %38) #16
  %.pre.i.i = load ptr, ptr %33, align 8
  %.pre2.i.i = load i32, ptr %37, align 8
  br label %43

43:                                               ; preds = %42, %36
  %44 = phi i32 [ %.pre2.i.i, %42 ], [ %38, %36 ]
  %45 = phi ptr [ %.pre.i.i, %42 ], [ %34, %36 ]
  %46 = add i32 %44, 1
  store i32 %46, ptr %37, align 8
  %47 = zext i32 %44 to i64
  %48 = getelementptr inbounds ptr, ptr %45, i64 %47
  store ptr %0, ptr %48, align 8
  br label %_ZN4Node7set_reqEjPS_.exit

49:                                               ; preds = %4
  tail call void @_ZN4Node9set_req_XEjPS_P12PhaseIterGVN(ptr noundef nonnull align 8 dereferenceable(52) %0, i32 noundef %1, ptr noundef %2, ptr noundef nonnull %3)
  br label %_ZN4Node7set_reqEjPS_.exit

_ZN4Node7set_reqEjPS_.exit:                       ; preds = %43, %32, %_ZN4Node7del_outEPS_.exit.i, %49
  ret void
}